; Function Attrs: mustprogress uwtable
define hidden noundef zeroext i1 @_ZN10duckdb_re26Regexp10ParseState20DoLeftParenNoCaptureEv(ptr noundef nonnull align 8 captures(none) dereferenceable(48) %0) local_unnamed_addr #9 align 2 personality ptr @__gxx_personality_v0 {
  %2 = tail call noalias noundef nonnull dereferenceable(40) ptr @_Znwm(i64 noundef 40) #33
  %3 = load i32, ptr %0, align 8, !tbaa !7
  invoke void @_ZN10duckdb_re26RegexpC1ENS_8RegexpOpENS0_10ParseFlagsE(ptr noundef nonnull align 8 dereferenceable(40) %2, i32 noundef 22, i32 noundef %3)
          to label %4 unwind label %7

4:                                                ; preds = %1
  %5 = getelementptr inbounds nuw i8, ptr %2, i64 24
  store i32 -1, ptr %5, align 8, !tbaa !27
  %6 = tail call noundef zeroext i1 @_ZN10duckdb_re26Regexp10ParseState10PushRegexpEPS0_(ptr noundef nonnull align 8 dereferenceable(48) %0, ptr noundef nonnull %2)
  ret i1 true

7:                                                ; preds = %1
  %8 = landingpad { ptr, i32 }
          cleanup
  tail call void @_ZdlPv(ptr noundef nonnull %2) #30
  resume { ptr, i32 } %8
}